         U abort
         U __aeabi_atexit@@CXXABI_ARM_1.3.3
         U __aeabi_idiv@@GCC_3.5
         U __aeabi_idivmod@@GCC_3.5
         U __aeabi_uidiv@@GCC_3.5
         U __aeabi_uidivmod@@GCC_3.5
         U __aeabi_unwind_cpp_pr0@@GCC_3.5
         U __aeabi_unwind_cpp_pr1@@GCC_3.5
         U __assert
         U cosf
         U __cxa_allocate_exception@@CXXABI_1.3
         U __cxa_begin_catch@@CXXABI_1.3
         U __cxa_end_catch@@CXXABI_1.3
         U __cxa_end_cleanup@@CXXABI_1.3
         U __cxa_guard_acquire@@CXXABI_1.3
         U __cxa_guard_release@@CXXABI_1.3
         U __cxa_rethrow@@CXXABI_1.3
         U __cxa_throw@@CXXABI_1.3
         w __deregister_frame_info
         U expf
         U fclose
         U feof
         U fopen
         U fread
         U free
         U fscanf
         U fseek
         U ftell
         U fwrite
         U gettimeofday
         U __gxx_personality_v0@@CXXABI_1.3
         U hd_common_init
         U hd_common_mem_alloc
         U hd_common_mem_flush_cache
         U hd_common_mem_free
         U hd_common_mem_init
         U hd_common_mem_uninit
         U hd_common_sysconfig
         U hd_common_uninit
         U hd_gfx_init
         U hd_gfx_uninit
         w _ITM_deregisterTMCloneTable
         w _ITM_registerTMCloneTable
         U log
         U logf
         U malloc
         U memcpy
         U memmove
         U memset
         U __mulsc3@@GCC_4.0.0
         U powf
         U printf
         w __register_frame_info
         U sinf
         U snprintf
         U sprintf
         U sqrtf
         U __uClibc_main
         U usleep
         U vendor_ai_cfg_get
         U vendor_ai_cfg_set
         U vendor_ai_cpu_util_float2fixed
         U vendor_ai_init
         U vendor_ai_net_close
         U vendor_ai_net_get
         U vendor_ai_net_open
         U vendor_ai_net_proc
         U vendor_ai_net_set
         U vendor_ai_net_start
         U vendor_ai_net_stop
         U vendor_ai_uninit
         U _ZdlPv@@GLIBCXX_3.4
         U _ZdlPvj@@CXXABI_1.3.9
         U _ZNKSt7__cxx1112basic_stringIcSt11char_traitsIcESaIcEE7compareEPKc@@GLIBCXX_3.4.21
         U _ZNSt7__cxx1112basic_stringIcSt11char_traitsIcESaIcEE9_M_createERjj@@GLIBCXX_3.4.21
         U _ZNSt8ios_base4InitC1Ev@@GLIBCXX_3.4
         U _ZNSt8ios_base4InitD1Ev@@GLIBCXX_3.4
         U _ZNSt9bad_allocD1Ev@@GLIBCXX_3.4
         U _Znwj@@GLIBCXX_3.4
         U _ZSt17__throw_bad_allocv@@GLIBCXX_3.4
         U _ZSt18_Rb_tree_decrementPSt18_Rb_tree_node_base@@GLIBCXX_3.4
         U _ZSt18_Rb_tree_incrementPSt18_Rb_tree_node_base@@GLIBCXX_3.4
         U _ZSt19__throw_logic_errorPKc@@GLIBCXX_3.4
         U _ZSt20__throw_length_errorPKc@@GLIBCXX_3.4
         U _ZSt29_Rb_tree_insert_and_rebalancebPSt18_Rb_tree_node_baseS0_RS_@@GLIBCXX_3.4
         U _ZTISt9bad_alloc@@GLIBCXX_3.4
         U _ZTVSt9bad_alloc@@GLIBCXX_3.4
00011708 T _init
00011ad8 t _GLOBAL__sub_I_wavPCM.cpp
00011b20 t _GLOBAL__sub_I_Handlewave.cpp
00011b68 T main
00011c3c t _GLOBAL__sub_I_ai_detect_wav.cpp
00011c84 T _start
00011cc0 t deregister_tm_clones
00011cec t register_tm_clones
00011d24 t __do_global_dtors_aux
00011d6c t frame_dummy
00011d9c T _Z18LinearToAlawSamples
00011df8 T _Z18AlawToLinearSampleh
00011e10 T _Z19LinearToMuLawSamples
00011e68 T _Z19MuLawToLinearSampleh
00011e80 W _ZN5Eigen8internal19throw_std_bad_allocEv
00011ecc T _ZN8CWaveMsg4skipERii
00011edc T _ZN8CWaveMsgC1EPhj
00011edc T _ZN8CWaveMsgC2EPhj
00011f90 T _ZN8CWaveMsgC1EPv
00011f90 T _ZN8CWaveMsgC2EPv
00012040 T _ZN8CWaveMsgD1Ev
00012040 T _ZN8CWaveMsgD2Ev
0001209c T _ZN8CWaveMsg11read_tag_exEi
000120c0 T _ZN8CWaveMsg8read_tagERi
0001210c T _ZN8CWaveMsg10read_int32ERi
0001215c T _ZN8CWaveMsg10read_int16ERi
00012184 T _ZN8CWaveMsg17wav_get_header_exEPiS0_S0_S0_Pj
000121ec T _ZN8CWaveMsg16wav_read_data_exEPhj
0001223c W _ZNSt6vectorIS_IfSaIfEESaIS1_EED1Ev
0001223c W _ZNSt6vectorIS_IfSaIfEESaIS1_EED2Ev
00012288 W _ZNSt6vectorIsSaIsEEaSERKS1_
000123ac W _ZNSt8_Rb_treeIiSt4pairIKiN5Eigen8internal12kiss_cpx_fftIfEEESt10_Select1stIS6_ESt4lessIiESaIS6_EE8_M_eraseEPSt13_Rb_tree_nodeIS6_E
00012420 W _ZNSt8_Rb_treeIiSt4pairIKiSt6vectorISt7complexIfESaIS4_EEESt10_Select1stIS7_ESt4lessIiESaIS7_EE8_M_eraseEPSt13_Rb_tree_nodeIS7_E
00012464 W _ZN5Eigen8internal12kissfft_implIfED1Ev
00012464 W _ZN5Eigen8internal12kissfft_implIfED2Ev
000124ac W _ZNSt6vectorIfSaIfEE17_M_default_appendEj
0001264c W _ZNSt6vectorIsSaIsEE17_M_realloc_insertIJsEEEvN9__gnu_cxx17__normal_iteratorIPsS1_EEDpOT_
0001274c W _ZNSt6vectorIsSaIsEE12emplace_backIJsEEEvDpOT_
00012780 T _ZN8CWaveMsg12checkPcmTypeERSt6vectorIsSaIsEERiPhji
000128a8 W _ZNSt7__cxx1112basic_stringIcSt11char_traitsIcESaIcEE12_M_constructIPKcEEvT_S8_St20forward_iterator_tag
0001295c T _ZN8CWaveMsg14extractWavHeadEv
00012d3c T _ZN8CWaveMsg13preHandleWaveEv
00013064 W _ZN5Eigen15PlainObjectBaseINS_6MatrixIfLi1ELin1ELi1ELi1ELin1EEEE6resizeEii
00013114 W _ZN5Eigen15PlainObjectBaseINS_6MatrixIfLin1ELin1ELi1ELin1ELin1EEEE6resizeEii
000131f4 W _ZNSt8_Rb_treeIiSt4pairIKiN5Eigen8internal12kiss_cpx_fftIfEEESt10_Select1stIS6_ESt4lessIiESaIS6_EE7_M_copyINSC_11_Alloc_nodeEEEPSt13_Rb_tree_nodeIS6_EPKSG_PSt18_Rb_tree_node_baseRT_
0001382c W _ZNSt8_Rb_treeIiSt4pairIKiSt6vectorISt7complexIfESaIS4_EEESt10_Select1stIS7_ESt4lessIiESaIS7_EE7_M_copyINSD_11_Alloc_nodeEEEPSt13_Rb_tree_nodeIS7_EPKSH_PSt18_Rb_tree_node_baseRT_
00013a9c W _ZN5Eigen7MapBaseINS_5BlockINS_6MatrixISt7complexIfELin1ELin1ELi1ELin1ELin1EEELi1ELin1ELb1EEELi0EEC1EPS4_ii
00013a9c W _ZN5Eigen7MapBaseINS_5BlockINS_6MatrixISt7complexIfELin1ELin1ELi1ELin1ELin1EEELi1ELin1ELb1EEELi0EEC2EPS4_ii
00013b14 W _ZN5Eigen7MapBaseINS_5BlockINS_6MatrixIfLin1ELin1ELi1ELin1ELin1EEELi1ELin1ELb1EEELi0EEC1EPfii
00013b14 W _ZN5Eigen7MapBaseINS_5BlockINS_6MatrixIfLin1ELin1ELi1ELin1ELin1EEELi1ELin1ELb1EEELi0EEC2EPfii
00013b8c W _ZN5Eigen7MapBaseINS_5BlockINS_6MatrixIfLi1ELin1ELi1ELi1ELin1EEELi1ELin1ELb0EEELi0EEC1EPfii
00013b8c W _ZN5Eigen7MapBaseINS_5BlockINS_6MatrixIfLi1ELin1ELi1ELi1ELin1EEELi1ELin1ELb0EEELi0EEC2EPfii
00013c04 t _ZN7librosa8internalL9melfilterEiiiii
00014ea4 W _ZNSt6vectorISt7complexIfESaIS1_EE17_M_default_appendEj
00015018 W _ZN5Eigen8internal12kiss_cpx_fftIfE5bfly3EPSt7complexIfEjj
0001511c W _ZN5Eigen8internal12kiss_cpx_fftIfE5bfly4EPSt7complexIfEjj
0001528c W _ZN5Eigen8internal12kiss_cpx_fftIfE5bfly5EPSt7complexIfEjj
000154c8 W _ZN5Eigen8internal12kiss_cpx_fftIfE4workIfEEviPSt7complexIfEPKT_jj
00015980 W _ZN5Eigen8internal12kiss_cpx_fftIfE12bfly_genericEPSt7complexIfEjii
00015b18 W _ZN5Eigen8internal12kiss_cpx_fftIfE4workISt7complexIfEEEviPS5_PKT_jj
00015edc W _ZNSt6vectorIiSaIiEE17_M_realloc_insertIJRKiEEEvN9__gnu_cxx17__normal_iteratorIPiS1_EEDpOT_
00015fdc W _ZNSt8_Rb_treeIiSt4pairIKiN5Eigen8internal12kiss_cpx_fftIfEEESt10_Select1stIS6_ESt4lessIiESaIS6_EE24_M_get_insert_unique_posERS1_
00016088 W _ZNSt8_Rb_treeIiSt4pairIKiN5Eigen8internal12kiss_cpx_fftIfEEESt10_Select1stIS6_ESt4lessIiESaIS6_EE22_M_emplace_hint_uniqueIJRKSt21piecewise_construct_tSt5tupleIJOiEESH_IJEEEEESt17_Rb_tree_iteratorIS6_ESt23_Rb_tree_const_iteratorIS6_EDpOT_
00016204 W _ZNSt8_Rb_treeIiSt4pairIKiSt6vectorISt7complexIfESaIS4_EEESt10_Select1stIS7_ESt4lessIiESaIS7_EE24_M_get_insert_unique_posERS1_
000162b0 W _ZN5Eigen8internal12kissfft_implIfE3fwdEPSt7complexIfEPKfi
00017074 t _ZN7librosa8internalL4stftERN5Eigen6MatrixIfLi1ELin1ELi1ELi1ELin1EEEiiRKNSt7__cxx1112basic_stringIcSt11char_traitsIcESaIcEEEbSC_.isra.752
00019350 W _ZN5Eigen8internal13gemm_pack_lhsIfiNS0_22const_blas_data_mapperIfiLi1EEELi12ELi4ELi1ELb0ELb0EEclEPfRKS3_iiii
0001981c W _ZN5Eigen8internal13gemm_pack_rhsIfiNS0_22const_blas_data_mapperIfiLi0EEELi4ELi0ELb0ELb0EEclEPfRKS3_iiii
00019d3c W _ZN5Eigen8internal11gebp_kernelIffiNS0_16blas_data_mapperIfiLi0ELi0EEELi12ELi4ELb0ELb0EEclERKS3_PKfS8_iiifiiii
0001b998 W _ZN5Eigen8internal29general_matrix_matrix_productIifLi1ELb0EfLi0ELb0ELi0EE3runEiiiPKfiS4_iPfifRNS0_15level3_blockingIffEEPNS0_16GemmParallelInfoIiEE
0001be48 W _ZN5Eigen7MapBaseINS_5BlockIKNS_6MatrixIfLin1ELin1ELi1ELin1ELin1EEELi1ELin1ELb1EEELi0EEC1EPKfii
0001be48 W _ZN5Eigen7MapBaseINS_5BlockIKNS_6MatrixIfLin1ELin1ELi1ELin1ELin1EEELi1ELin1ELb1EEELi0EEC2EPKfii
0001bec0 W _ZN5Eigen7MapBaseINS_5BlockIKNS_9TransposeINS_6MatrixIfLin1ELin1ELi1ELin1ELin1EEEEELin1ELi1ELb1EEELi0EEC1EPKfii
0001bec0 W _ZN5Eigen7MapBaseINS_5BlockIKNS_9TransposeINS_6MatrixIfLin1ELin1ELi1ELin1ELin1EEEEELin1ELi1ELb1EEELi0EEC2EPKfii
0001bf38 W _ZN7librosa7Feature14melspectrogramERSt6vectorIfSaIfEEiiiRKNSt7__cxx1112basic_stringIcSt11char_traitsIcESaIcEEEbSC_fiii
0001d418 T _ZN8CWaveMsg14preprocessWaveERjP12input_info_tiiiiii
0001d874 T _Z15wyzeIDetectWaveP8WaveInfo
0001d938 t _ZL14hdal_mem_allocP9_MEM_PARMPcm
0001d9b8 t _ZL13hdal_mem_freeP9_MEM_PARM
0001d9f0 T _Z16run_ai_inferencev
0001e344 T _fini
0001e358 r _ZL17ALawCompressTable
0001e3d8 r _ZL18MuLawCompressTable
0001e4d8 r _ZL19ALawDecompressTable
0001e6d8 r _ZL20MuLawDecompressTable
0001f508 r _ZStL19piecewise_construct
0001f50c r _ZZN5Eigen13CwiseBinaryOpINS_8internal13scalar_cmp_opIffLNS1_14ComparisonNameE1EEEKNS_12ArrayWrapperINS_6MatrixIfLin1ELin1ELi1ELin1ELin1EEEEES9_EC4ERS9_SB_RKS4_E19__PRETTY_FUNCTION__
0001f72c r _ZZN5Eigen13CwiseBinaryOpINS_8internal17scalar_product_opIffEEKNS_12ArrayWrapperINS_6MatrixIfLi1ELin1ELi1ELi1ELin1EEEEEKNS4_INS_5BlockIS6_Li1ELin1ELb0EEEEEEC4ERS8_RSC_RKS3_E19__PRETTY_FUNCTION__
0001f954 r _ZZN5Eigen13CwiseBinaryOpINS_8internal17scalar_product_opIffEEKNS_12ArrayWrapperINS_6MatrixIfLin1ELin1ELi1ELin1ELin1EEEEEKNS_9ReplicateINS_9TransposeIKNS0_INS1_18scalar_quotient_opIffEEKNS_14CwiseNullaryOpINS1_18scalar_constant_opIfEEKNS_5ArrayIfLi1ELin1ELi1ELi1ELin1EEEEEKNS4_IKNS0_INS1_20scalar_difference_opIffEEKNS_5BlockINS5_IfLi1ELin1ELi1ELi1ELin1EEELi1ELin1ELb0EEESQ_EEEEEEEELin1ELin1EEEEC4ERS8_RSZ_RKS3_E19__PRETTY_FUNCTION__
0001fea4 r _ZZN5Eigen13CwiseBinaryOpINS_8internal17scalar_product_opIffEEKNS_9TransposeIKNS_5BlockIKNS_6MatrixIfLin1ELin1ELi1ELin1ELin1EEELi1ELin1ELb1EEEEEKNS5_IKNS4_IS7_EELin1ELi1ELb1EEEEC4ERSC_RSG_RKS3_E19__PRETTY_FUNCTION__
00020128 r _ZZN5Eigen13CwiseBinaryOpINS_8internal18scalar_quotient_opIffEEKNS_12ArrayWrapperINS_5BlockINS_6MatrixIfLin1ELin1ELi1ELin1ELin1EEELin1ELin1ELb1EEEEEKNS4_IKNS_9ReplicateINS_9TransposeINS5_INS6_IfLi1ELin1ELi1ELi1ELin1EEELi1ELin1ELb0EEEEELin1ELin1EEEEEEC4ERSA_RSJ_RKS3_E19__PRETTY_FUNCTION__
000203f8 r _ZZN5Eigen13CwiseBinaryOpINS_8internal18scalar_quotient_opIffEEKNS_12CwiseUnaryOpINS1_18scalar_opposite_opIfEEKNS_12ArrayWrapperINS_5BlockINS_6MatrixIfLin1ELin1ELi1ELin1ELin1EEELin1ELin1ELb1EEEEEEEKNS7_IKNS_9ReplicateINS_9TransposeINS8_INS9_IfLi1ELin1ELi1ELi1ELin1EEELi1ELin1ELb0EEEEELin1ELin1EEEEEEC4ERSF_RSO_RKS3_E19__PRETTY_FUNCTION__
00020758 r _ZZN5Eigen13CwiseBinaryOpINS_8internal20scalar_difference_opIffEEKNS_12ArrayWrapperIKNS_9TransposeIKNS_9ReplicateINS_6MatrixIfLi1ELin1ELi1ELi1ELin1EEELin1ELin1EEEEEEEKNS4_ISA_EEEC4ERSE_RSG_RKS3_E19__PRETTY_FUNCTION__
00020a00 r _ZZN5Eigen13CwiseBinaryOpINS_8internal20scalar_difference_opIffEEKNS_5BlockINS_6MatrixIfLi1ELin1ELi1ELi1ELin1EEELi1ELin1ELb0EEES8_EC4ERS8_SA_RKS3_E19__PRETTY_FUNCTION__
00020c0c r _ZZN5Eigen14CwiseNullaryOpINS_8internal12linspaced_opIf19__simd128_float32_tEENS_6MatrixIfLi1ELin1ELi1ELi1ELin1EEEEC4EiiRKS4_E19__PRETTY_FUNCTION__
00020d08 r _ZZN5Eigen14CwiseNullaryOpINS_8internal18scalar_constant_opIfEEKNS_5ArrayIfLi1ELin1ELi1ELi1ELin1EEEEC4EiiRKS3_E19__PRETTY_FUNCTION__
00020e04 r _ZZN5Eigen14CwiseNullaryOpINS_8internal18scalar_constant_opIfEEKNS_5ArrayIfLin1ELin1ELi1ELin1ELin1EEEEC4EiiRKS3_E19__PRETTY_FUNCTION__
00020f04 r _ZZN5Eigen14CwiseNullaryOpINS_8internal18scalar_constant_opIfEENS_6MatrixIfLi1ELin1ELi1ELi1ELin1EEEEC4EiiRKS3_E19__PRETTY_FUNCTION__
00020ff0 r _ZZN5Eigen14CwiseNullaryOpINS_8internal18scalar_constant_opIfEENS_6MatrixIfLin1ELin1ELi1ELin1ELin1EEEEC4EiiRKS3_E19__PRETTY_FUNCTION__
000210e0 r _ZZN5Eigen15DenseCoeffsBaseINS_5BlockINS_6MatrixISt7complexIfELin1ELin1ELi1ELin1ELin1EEELi1ELin1ELb1EEELi1EEixEiE19__PRETTY_FUNCTION__
000211fc r _ZZN5Eigen15DenseCoeffsBaseINS_6MatrixIfLi1ELin1ELi1ELi1ELin1EEELi1EEixEiE19__PRETTY_FUNCTION__
000212dc r _ZZN5Eigen15PlainObjectBaseINS_6MatrixISt7complexIfELin1ELin1ELi1ELin1ELin1EEEE6resizeEiiE19__PRETTY_FUNCTION__
00021378 r _ZZN5Eigen15PlainObjectBaseINS_6MatrixIfLi1ELin1ELi1ELi1ELin1EEEE6resizeEiiE19__PRETTY_FUNCTION__
00021404 r _ZZN5Eigen15PlainObjectBaseINS_6MatrixIfLin1ELin1ELi1ELin1ELin1EEEE6resizeEiiE19__PRETTY_FUNCTION__
00021494 r _ZZN5Eigen5BlockIKNS_6MatrixIfLin1ELin1ELi1ELin1ELin1EEELi1ELin1ELb1EEC4ERS3_iE19__PRETTY_FUNCTION__
00021578 r _ZZN5Eigen5BlockIKNS_9TransposeINS_6MatrixIfLin1ELin1ELi1ELin1ELin1EEEEELin1ELi1ELb1EEC4ERS5_iE19__PRETTY_FUNCTION__
0002166c r _ZZN5Eigen5BlockINS_6MatrixISt7complexIfELin1ELin1ELi1ELin1ELin1EEELi1ELin1ELb1EEC4ERS4_iE19__PRETTY_FUNCTION__
00021758 r _ZZN5Eigen5BlockINS_6MatrixISt7complexIfELin1ELin1ELi1ELin1ELin1EEELin1ELin1ELb0EEC4ERS4_iiiiE19__PRETTY_FUNCTION__
00021870 r _ZZN5Eigen5BlockINS_6MatrixIfLi1ELin1ELi1ELi1ELin1EEELi1ELin1ELb0EEC4ERS2_iiiiE19__PRETTY_FUNCTION__
00021974 r _ZZN5Eigen5BlockINS_6MatrixIfLin1ELin1ELi1ELin1ELin1EEELi1ELin1ELb1EEC4ERS2_iE19__PRETTY_FUNCTION__
00021a50 r _ZZN5Eigen5BlockINS_6MatrixIfLin1ELin1ELi1ELin1ELin1EEELin1ELin1ELb1EEC4ERS2_iiiiE19__PRETTY_FUNCTION__
00021b58 r _ZZN5Eigen7MapBaseINS_3MapINS_6MatrixIfLi1ELin1ELi1ELi1ELin1EEELi0ENS_6StrideILi0ELi0EEEEELi0EEC4EPfiE19__PRETTY_FUNCTION__
00021c4c r _ZZN5Eigen7MapBaseINS_5BlockIKNS_6MatrixIfLin1ELin1ELi1ELin1ELin1EEELi1ELin1ELb1EEELi0EEC4EPKfiiE19__PRETTY_FUNCTION__
00021d54 r _ZZN5Eigen7MapBaseINS_5BlockIKNS_9TransposeINS_6MatrixIfLin1ELin1ELi1ELin1ELin1EEEEELin1ELi1ELb1EEELi0EEC4EPKfiiE19__PRETTY_FUNCTION__
00021e70 r _ZZN5Eigen7MapBaseINS_5BlockINS_6MatrixISt7complexIfELin1ELin1ELi1ELin1ELin1EEELi1ELin1ELb1EEELi0EEC4EPS4_iiE19__PRETTY_FUNCTION__
00021f88 r _ZZN5Eigen7MapBaseINS_5BlockINS_6MatrixISt7complexIfELin1ELin1ELi1ELin1ELin1EEELin1ELin1ELb0EEELi0EEC4EPS4_iiE19__PRETTY_FUNCTION__
000220a4 r _ZZN5Eigen7MapBaseINS_5BlockINS_6MatrixIfLi1ELin1ELi1ELi1ELin1EEELi1ELin1ELb0EEELi0EEC4EPfiiE19__PRETTY_FUNCTION__
0002219c r _ZZN5Eigen7MapBaseINS_5BlockINS_6MatrixIfLin1ELin1ELi1ELin1ELin1EEELi1ELin1ELb1EEELi0EEC4EPfiiE19__PRETTY_FUNCTION__
00022298 r _ZZN5Eigen7MapBaseINS_5BlockINS_6MatrixIfLin1ELin1ELi1ELin1ELin1EEELin1ELin1ELb1EEELi0EEC4EPfiiE19__PRETTY_FUNCTION__
00022394 r _ZZN5Eigen7ProductINS_6MatrixIfLin1ELin1ELi1ELin1ELin1EEENS_9TransposeIS2_EELi0EEC4ERKS2_RKS4_E19__PRETTY_FUNCTION__
000224f4 r _ZZN5Eigen7ProductINS_6MatrixIfLin1ELin1ELi1ELin1ELin1EEENS_9TransposeIS2_EELi1EEC4ERKS2_RKS4_E19__PRETTY_FUNCTION__
00022654 r _ZZN5Eigen8internal13gemm_pack_lhsIfiNS0_22const_blas_data_mapperIfiLi1EEELi12ELi4ELi1ELb0ELb0EEclEPfRKS3_iiiiE19__PRETTY_FUNCTION__
000227b8 r _ZZN5Eigen8internal13gemm_pack_rhsIfiNS0_22const_blas_data_mapperIfiLi0EEELi4ELi0ELb0ELb0EEclEPfRKS3_iiiiE19__PRETTY_FUNCTION__
000228fc r _ZZN5Eigen8internal17resize_if_allowedINS_6MatrixIfLi1ELin1ELi1ELi1ELin1EEENS_13CwiseBinaryOpINS0_17scalar_product_opIffEEKNS_14CwiseNullaryOpINS0_18scalar_constant_opIfEEKNS_5ArrayIfLi1ELin1ELi1ELi1ELin1EEEEEKNS4_INS0_20scalar_difference_opIffEESE_KNS_12CwiseUnaryOpINS0_13scalar_cos_opIfEEKNS_12ArrayWrapperIKNS4_INS0_18scalar_quotient_opIffEEKNS4_IS6_KNS4_IS6_KNS7_INS0_12linspaced_opIf19__simd128_float32_tEES3_EEKNS7_IS9_KS3_EEEESU_EESU_EEEEEEEEEEffEEvRT_RKT0_RKNS0_9assign_opIT1_T2_EEE19__PRETTY_FUNCTION__
00022e54 r _ZZN5Eigen8internal17resize_if_allowedINS_6MatrixIfLi1ELin1ELi1ELi1ELin1EEENS_13CwiseBinaryOpINS0_18scalar_quotient_opIffEEKNS4_INS0_17scalar_product_opIffEEKNS_14CwiseNullaryOpINS0_12linspaced_opIf19__simd128_float32_tEES3_EEKNS9_INS0_18scalar_constant_opIfEEKS3_EEEESJ_EEffEEvRT_RKT0_RKNS0_9assign_opIT1_T2_EEE19__PRETTY_FUNCTION__
00023104 r _ZZN5Eigen8internal17resize_if_allowedINS_6MatrixIfLi1ELin1ELi1ELi1ELin1EEENS_13CwiseBinaryOpINS0_20scalar_difference_opIffEEKNS_5BlockIS3_Li1ELin1ELb0EEES9_EEffEEvRT_RKT0_RKNS0_9assign_opIT1_T2_EEE19__PRETTY_FUNCTION__
00023298 r _ZZN5Eigen8internal17resize_if_allowedINS_6MatrixIfLi1ELin1ELi1ELi1ELin1EEENS_14CwiseNullaryOpINS0_12linspaced_opIf19__simd128_float32_tEES3_EEffEEvRT_RKT0_RKNS0_9assign_opIT1_T2_EEE19__PRETTY_FUNCTION__
000233d0 r _ZZN5Eigen8internal17resize_if_allowedINS_6MatrixIfLi1ELin1ELi1ELi1ELin1EEENS_14CwiseNullaryOpINS0_18scalar_constant_opIfEES3_EEffEEvRT_RKT0_RKNS0_9assign_opIT1_T2_EEE19__PRETTY_FUNCTION__
000234fc r _ZZN5Eigen8internal17resize_if_allowedINS_6MatrixIfLi1ELin1ELi1ELi1ELin1EEENS_6SelectINS_13CwiseBinaryOpINS0_13scalar_cmp_opIffLNS0_14ComparisonNameE1EEEKNS_14CwiseNullaryOpINS0_18scalar_constant_opIfEENS_5ArrayIfLi1ELin1ELi1ELi1ELin1EEEEEKNS_12ArrayWrapperIS3_EEEENS5_INS0_17scalar_product_opIffEEKNS_12CwiseUnaryOpINS0_13scalar_exp_opIfEEKNS5_ISL_KNS5_INS0_20scalar_difference_opIffEESI_KNS9_ISB_KSD_EEEEST_EEEEST_EENS5_INS0_13scalar_sum_opIffEEKNSG_IKNS5_ISL_KS3_KNS9_ISB_S13_EEEEEEST_EEEEffEEvRT_RKT0_RKNS0_9assign_opIT1_T2_EEE19__PRETTY_FUNCTION__
00023b64 r _ZZN5Eigen8internal17resize_if_allowedINS_6MatrixIfLin1ELin1ELi1ELin1ELin1EEENS_13CwiseBinaryOpINS0_13scalar_max_opIffEEKNS_6SelectINS4_INS0_13scalar_cmp_opIffLNS0_14ComparisonNameE1EEEKNS_12ArrayWrapperIS3_EESD_EES3_S3_EEKNS_14CwiseNullaryOpINS0_18scalar_constant_opIfEES3_EEEEffEEvRT_RKT0_RKNS0_9assign_opIT1_T2_EEE19__PRETTY_FUNCTION__
00023e1c r _ZZN5Eigen8internal17resize_if_allowedINS_6MatrixIfLin1ELin1ELi1ELin1ELin1EEENS_13CwiseBinaryOpINS0_13scalar_pow_opIffEEKNS_12ArrayWrapperIKNS_12CwiseUnaryOpINS0_13scalar_abs_opISt7complexIfEEEKNS2_ISB_Lin1ELin1ELi1ELin1ELin1EEEEEEEKNS_14CwiseNullaryOpINS0_18scalar_constant_opIfEEKNS_5ArrayIfLin1ELin1ELi1ELin1ELin1EEEEEEEffEEvRT_RKT0_RKNS0_9assign_opIT1_T2_EEE19__PRETTY_FUNCTION__
00024048 r _ZZN5Eigen8internal17resize_if_allowedINS_6MatrixIfLin1ELin1ELi1ELin1ELin1EEENS_13CwiseBinaryOpINS0_17scalar_product_opIffEEKNS_12ArrayWrapperIS3_EEKNS_9ReplicateINS_9TransposeIKNS4_INS0_18scalar_quotient_opIffEEKNS_14CwiseNullaryOpINS0_18scalar_constant_opIfEEKNS_5ArrayIfLi1ELin1ELi1ELi1ELin1EEEEEKNS7_IKNS4_INS0_20scalar_difference_opIffEEKNS_5BlockINS2_IfLi1ELin1ELi1ELi1ELin1EEELi1ELin1ELb0EEESR_EEEEEEEELin1ELin1EEEEEffEEvRT_RKT0_RKNS0_9assign_opIT1_T2_EEE19__PRETTY_FUNCTION__
00024380 r _ZZN5Eigen8internal17resize_if_allowedINS_6MatrixIfLin1ELin1ELi1ELin1ELin1EEENS_13CwiseBinaryOpINS0_18scalar_quotient_opIffEEKNS_12ArrayWrapperINS_5BlockIS3_Lin1ELin1ELb1EEEEEKNS7_IKNS_9ReplicateINS_9TransposeINS8_INS2_IfLi1ELin1ELi1ELi1ELin1EEELi1ELin1ELb0EEEEELin1ELin1EEEEEEEffEEvRT_RKT0_RKNS0_9assign_opIT1_T2_EEE19__PRETTY_FUNCTION__
00024578 r _ZZN5Eigen8internal17resize_if_allowedINS_6MatrixIfLin1ELin1ELi1ELin1ELin1EEENS_13CwiseBinaryOpINS0_18scalar_quotient_opIffEEKNS_12CwiseUnaryOpINS0_18scalar_opposite_opIfEEKNS_12ArrayWrapperINS_5BlockIS3_Lin1ELin1ELb1EEEEEEEKNSA_IKNS_9ReplicateINS_9TransposeINSB_INS2_IfLi1ELin1ELi1ELi1ELin1EEELi1ELin1ELb0EEEEELin1ELin1EEEEEEEffEEvRT_RKT0_RKNS0_9assign_opIT1_T2_EEE19__PRETTY_FUNCTION__
000247b8 r _ZZN5Eigen8internal17resize_if_allowedINS_6MatrixIfLin1ELin1ELi1ELin1ELin1EEENS_13CwiseBinaryOpINS0_20scalar_difference_opIffEEKNS_12ArrayWrapperIKNS_9TransposeIKNS_9ReplicateINS2_IfLi1ELin1ELi1ELi1ELin1EEELin1ELin1EEEEEEEKNS7_ISC_EEEEffEEvRT_RKT0_RKNS0_9assign_opIT1_T2_EEE19__PRETTY_FUNCTION__
0002499c r _ZZN5Eigen8internal17resize_if_allowedINS_6MatrixIfLin1ELin1ELi1ELin1ELin1EEENS_7ProductIS3_NS_9TransposeIS3_EELi1EEEffEEvRT_RKT0_RKNS0_9assign_opIT1_T2_EEE19__PRETTY_FUNCTION__
00024ad0 r _ZZN5Eigen8internal17resize_if_allowedINS_6MatrixIfLin1ELin1ELi1ELin1ELin1EEENS_9TransposeIS3_EEffEEvRT_RKT0_RKNS0_9assign_opIT1_T2_EEE19__PRETTY_FUNCTION__
00024bd0 r _ZZN5Eigen8internal19variable_if_dynamicIiLi1EEC4EiE19__PRETTY_FUNCTION__
00024c38 r _ZZN5Eigen8internal20generic_product_implINS_6MatrixIfLin1ELin1ELi1ELin1ELin1EEENS_9TransposeIS3_EENS_10DenseShapeES6_Li8EE13scaleAndAddToIS3_EEvRT_RKS3_RKS5_RKfE19__PRETTY_FUNCTION__
00024dd4 r _ZZN5Eigen8internal27checkTransposeAliasing_implINS_6MatrixIfLin1ELin1ELi1ELin1ELin1EEENS_9TransposeIS3_EELb1EE3runERKS3_RKS5_E19__PRETTY_FUNCTION__
00024f08 r _ZZN5Eigen9DenseBaseINS_3MapINS_6MatrixIfLi1ELin1ELi1ELi1ELin1EEELi0ENS_6StrideILi0ELi0EEEEEE6resizeEiiE19__PRETTY_FUNCTION__
00024fb4 r _ZZN5Eigen9DenseBaseINS_5BlockINS_6MatrixISt7complexIfELin1ELin1ELi1ELin1ELin1EEELi1ELin1ELb1EEEE6resizeEiE19__PRETTY_FUNCTION__
00025058 r _ZZN5Eigen9DenseBaseINS_5BlockINS_6MatrixIfLi1ELin1ELi1ELi1ELin1EEELi1ELin1ELb0EEEE6resizeEiiE19__PRETTY_FUNCTION__
000250f8 r _ZZNK5Eigen15DenseCoeffsBaseINS_6MatrixIfLi1ELin1ELi1ELi1ELin1EEELi0EEixEiE19__PRETTY_FUNCTION__
000251f4 r _ZZNK5Eigen9DenseBaseINS_13CwiseBinaryOpINS_8internal17scalar_product_opIffEEKNS_9TransposeIKNS_5BlockIKNS_6MatrixIfLin1ELin1ELi1ELin1ELin1EEELi1ELin1ELb1EEEEEKNS6_IKNS5_IS8_EELin1ELi1ELb1EEEEEE5reduxINS2_13scalar_sum_opIffEEEEfRKT_E19__PRETTY_FUNCTION__
00025d70 r 
00025d70 r __FRAME_END__
00035ebc d __frame_dummy_init_array_entry
00035ecc d __do_global_dtors_aux_fini_array_entry
00035ed0 d _DYNAMIC
00036000 d _GLOBAL_OFFSET_TABLE_
00036164 D __data_start
00036164 W data_start
00036168 D __dso_handle
0003616c B __bss_start
0003616c B __bss_start__
0003616c b completed.10337
0003616c D _edata
0003616c D __TMC_END__
00036170 b object.10342
00036188 b _ZStL8__ioinit
0003618c V _ZGVZN5Eigen8internal20manage_caching_sizesENS_6ActionEPiS2_S2_E12m_cacheSizes
00036190 V _ZZN5Eigen8internal20manage_caching_sizesENS_6ActionEPiS2_S2_E12m_cacheSizes
0003619c b _ZStL8__ioinit
000361a0 b _ZStL8__ioinit
000361a4 B time_flush
000361a8 B time_image_load_init
000361ac B time_inference
000361b0 B time_model_load_init
000361b4 B time_nms
000361b8 B time_postprocess
000361bc B time_transfom
000361c0 B time_transpose_data
000361c4 B __bss_end__
000361c4 B _bss_end__
000361c4 B _end
000361c4 B __end__
